target datalayout = "e-m:e-p270:32:32-p271:32:32-p272:64:64-i64:64-i128:128-f80:128-n8:16:32:64-S128"
target triple = "x86_64-pc-linux-gnu"

%struct.vtx_data = type { i32, ptr }

@stderr = external global ptr, align 8
@.str.4 = private unnamed_addr constant [58 x i8] c"integer overflow when trying to allocate %zu * %zu bytes\0A\00", align 1
@.str.5 = private unnamed_addr constant [49 x i8] c"out of memory when trying to allocate %zu bytes\0A\00", align 1

; Function Attrs: inlinehint nounwind uwtable
define internal ptr @gv_calloc(i64 noundef %0, i64 noundef %1) #3 {
  %3 = alloca i64, align 8
  %4 = alloca i64, align 8
  %5 = alloca ptr, align 8
  store i64 %0, ptr %3, align 8, !tbaa !46
  store i64 %1, ptr %4, align 8, !tbaa !46
  %6 = load i64, ptr %3, align 8, !tbaa !46
  %7 = icmp ugt i64 %6, 0
  br i1 %7, label %8, label %18

8:                                                ; preds = %2
  %9 = load i64, ptr %3, align 8, !tbaa !46
  %10 = udiv i64 -1, %9
  %11 = load i64, ptr %4, align 8, !tbaa !46
  %12 = icmp ult i64 %10, %11
  br i1 %12, label %13, label %18

13:                                               ; preds = %8
  %14 = load ptr, ptr @stderr, align 8, !tbaa !14
  %15 = load i64, ptr %3, align 8, !tbaa !46
  %16 = load i64, ptr %4, align 8, !tbaa !46
  %17 = call i32 (ptr, ptr, ...) @fprintf(ptr noundef %14, ptr noundef @.str.4, i64 noundef %15, i64 noundef %16) #11
  call void @graphviz_exit(i32 noundef 1) #12
  unreachable

18:                                               ; preds = %8, %2
  call void @llvm.lifetime.start.p0(i64 8, ptr %5) #11
  %19 = load i64, ptr %3, align 8, !tbaa !46
  %20 = load i64, ptr %4, align 8, !tbaa !46
  %21 = call noalias ptr @calloc(i64 noundef %19, i64 noundef %20) #13
  store ptr %21, ptr %5, align 8, !tbaa !8
  %22 = load i64, ptr %3, align 8, !tbaa !46
  %23 = icmp ugt i64 %22, 0
  br i1 %23, label %24, label %36

24:                                               ; preds = %18
  %25 = load i64, ptr %4, align 8, !tbaa !46
  %26 = icmp ugt i64 %25, 0
  br i1 %26, label %27, label %36

27:                                               ; preds = %24
  %28 = load ptr, ptr %5, align 8, !tbaa !8
  %29 = icmp eq ptr %28, null
  br i1 %29, label %30, label %36

30:                                               ; preds = %27
  %31 = load ptr, ptr @stderr, align 8, !tbaa !14
  %32 = load i64, ptr %3, align 8, !tbaa !46
  %33 = load i64, ptr %4, align 8, !tbaa !46
  %34 = mul i64 %32, %33
  %35 = call i32 (ptr, ptr, ...) @fprintf(ptr noundef %31, ptr noundef @.str.5, i64 noundef %34) #11
  call void @graphviz_exit(i32 noundef 1) #12
  unreachable

36:                                               ; preds = %27, %24, %18
  %37 = load ptr, ptr %5, align 8, !tbaa !8
  call void @llvm.lifetime.end.p0(i64 8, ptr %5) #11
  ret ptr %37
}

; Function Attrs: nounwind uwtable
define dso_local void @makeSierpinski(i32 noundef %0, ptr noundef %1) #0 {
  %3 = alloca i32, align 4
  %4 = alloca ptr, align 8
  %5 = alloca ptr, align 8
  %6 = alloca i32, align 4
  %7 = alloca ptr, align 8
  %8 = alloca i32, align 4
  %9 = alloca i32, align 4
  %10 = alloca i32, align 4
  %11 = alloca i32, align 4
  %12 = alloca i32, align 4
  store i32 %0, ptr %3, align 4, !tbaa !4
  store ptr %1, ptr %4, align 8, !tbaa !8
  call void @llvm.lifetime.start.p0(i64 8, ptr %5) #11
  %13 = load i32, ptr %3, align 4, !tbaa !4
  %14 = add i32 %13, -1
  store i32 %14, ptr %3, align 4, !tbaa !4
  call void @llvm.lifetime.start.p0(i64 4, ptr %6) #11
  %15 = load i32, ptr %3, align 4, !tbaa !4
  %16 = uitofp i32 %15 to double
  %17 = call double @pow(double noundef 3.000000e+00, double noundef %16) #11, !tbaa !4
  %18 = fadd double %17, 5.000000e-01
  %19 = fptoui double %18 to i32
  %20 = sub i32 %19, 1
  %21 = udiv i32 %20, 2
  %22 = add i32 1, %21
  %23 = mul i32 3, %22
  store i32 %23, ptr %6, align 4, !tbaa !4
  %24 = load i32, ptr %6, align 4, !tbaa !4
  %25 = add i32 %24, 1
  %26 = zext i32 %25 to i64
  %27 = call ptr @gv_calloc(i64 noundef %26, i64 noundef 16)
  store ptr %27, ptr %5, align 8, !tbaa !8
  call void @llvm.lifetime.start.p0(i64 8, ptr %7) #11
  %28 = load i32, ptr %6, align 4, !tbaa !4
  %29 = mul i32 4, %28
  %30 = zext i32 %29 to i64
  %31 = call ptr @gv_calloc(i64 noundef %30, i64 noundef 4)
  store ptr %31, ptr %7, align 8, !tbaa !38
  call void @llvm.lifetime.start.p0(i64 4, ptr %8) #11
  store i32 1, ptr %8, align 4, !tbaa !4
  br label %32

32:                                               ; preds = %51, %2
  %33 = load i32, ptr %8, align 4, !tbaa !4
  %34 = load i32, ptr %6, align 4, !tbaa !4
  %35 = icmp ule i32 %33, %34
  br i1 %35, label %37, label %36

36:                                               ; preds = %32
  call void @llvm.lifetime.end.p0(i64 4, ptr %8) #11
  br label %54

37:                                               ; preds = %32
  %38 = load ptr, ptr %7, align 8, !tbaa !38
  %39 = load ptr, ptr %5, align 8, !tbaa !8
  %40 = load i32, ptr %8, align 4, !tbaa !4
  %41 = zext i32 %40 to i64
  %42 = getelementptr inbounds nuw %struct.vtx_data, ptr %39, i64 %41
  %43 = getelementptr inbounds nuw %struct.vtx_data, ptr %42, i32 0, i32 1
  store ptr %38, ptr %43, align 8, !tbaa !40
  %44 = load ptr, ptr %7, align 8, !tbaa !38
  %45 = getelementptr inbounds i32, ptr %44, i64 4
  store ptr %45, ptr %7, align 8, !tbaa !38
  %46 = load ptr, ptr %5, align 8, !tbaa !8
  %47 = load i32, ptr %8, align 4, !tbaa !4
  %48 = zext i32 %47 to i64
  %49 = getelementptr inbounds nuw %struct.vtx_data, ptr %46, i64 %48
  %50 = getelementptr inbounds nuw %struct.vtx_data, ptr %49, i32 0, i32 0
  store i32 0, ptr %50, align 8, !tbaa !42
  br label %51

51:                                               ; preds = %37
  %52 = load i32, ptr %8, align 4, !tbaa !4
  %53 = add i32 %52, 1
  store i32 %53, ptr %8, align 4, !tbaa !4
  br label %32, !llvm.loop !43

54:                                               ; preds = %36
  %55 = load i32, ptr %3, align 4, !tbaa !4
  %56 = load ptr, ptr %5, align 8, !tbaa !8
  call void @constructSierpinski(i32 noundef 1, i32 noundef 2, i32 noundef 3, i32 noundef %55, ptr noundef %56)
  call void @llvm.lifetime.start.p0(i64 4, ptr %9) #11
  store i32 1, ptr %9, align 4, !tbaa !4
  br label %57

57:                                               ; preds = %96, %54
  %58 = load i32, ptr %9, align 4, !tbaa !4
  %59 = load i32, ptr %6, align 4, !tbaa !4
  %60 = icmp ule i32 %58, %59
  br i1 %60, label %62, label %61

61:                                               ; preds = %57
  store i32 5, ptr %10, align 4
  call void @llvm.lifetime.end.p0(i64 4, ptr %9) #11
  br label %99

62:                                               ; preds = %57
  call void @llvm.lifetime.start.p0(i64 4, ptr %11) #11
  store i32 0, ptr %11, align 4, !tbaa !4
  br label %63

63:                                               ; preds = %92, %62
  %64 = load i32, ptr %11, align 4, !tbaa !4
  %65 = load ptr, ptr %5, align 8, !tbaa !8
  %66 = load i32, ptr %9, align 4, !tbaa !4
  %67 = zext i32 %66 to i64
  %68 = getelementptr inbounds nuw %struct.vtx_data, ptr %65, i64 %67
  %69 = getelementptr inbounds nuw %struct.vtx_data, ptr %68, i32 0, i32 0
  %70 = load i32, ptr %69, align 8, !tbaa !42
  %71 = icmp ult i32 %64, %70
  br i1 %71, label %73, label %72

72:                                               ; preds = %63
  store i32 8, ptr %10, align 4
  call void @llvm.lifetime.end.p0(i64 4, ptr %11) #11
  br label %95

73:                                               ; preds = %63
  call void @llvm.lifetime.start.p0(i64 4, ptr %12) #11
  %74 = load ptr, ptr %5, align 8, !tbaa !8
  %75 = load i32, ptr %9, align 4, !tbaa !4
  %76 = zext i32 %75 to i64
  %77 = getelementptr inbounds nuw %struct.vtx_data, ptr %74, i64 %76
  %78 = getelementptr inbounds nuw %struct.vtx_data, ptr %77, i32 0, i32 1
  %79 = load ptr, ptr %78, align 8, !tbaa !40
  %80 = load i32, ptr %11, align 4, !tbaa !4
  %81 = zext i32 %80 to i64
  %82 = getelementptr inbounds nuw i32, ptr %79, i64 %81
  %83 = load i32, ptr %82, align 4, !tbaa !4
  store i32 %83, ptr %12, align 4, !tbaa !4
  %84 = load i32, ptr %9, align 4, !tbaa !4
  %85 = load i32, ptr %12, align 4, !tbaa !4
  %86 = icmp ult i32 %84, %85
  br i1 %86, label %87, label %91

87:                                               ; preds = %73
  %88 = load ptr, ptr %4, align 8, !tbaa !8
  %89 = load i32, ptr %9, align 4, !tbaa !4
  %90 = load i32, ptr %12, align 4, !tbaa !4
  call void %88(i32 noundef %89, i32 noundef %90)
  br label %91

91:                                               ; preds = %87, %73
  call void @llvm.lifetime.end.p0(i64 4, ptr %12) #11
  br label %92

92:                                               ; preds = %91
  %93 = load i32, ptr %11, align 4, !tbaa !4
  %94 = add i32 %93, 1
  store i32 %94, ptr %11, align 4, !tbaa !4
  br label %63, !llvm.loop !44

95:                                               ; preds = %72
  br label %96

96:                                               ; preds = %95
  %97 = load i32, ptr %9, align 4, !tbaa !4
  %98 = add i32 %97, 1
  store i32 %98, ptr %9, align 4, !tbaa !4
  br label %57, !llvm.loop !45

99:                                               ; preds = %61
  %100 = load ptr, ptr %5, align 8, !tbaa !8
  %101 = getelementptr inbounds %struct.vtx_data, ptr %100, i64 1
  %102 = getelementptr inbounds nuw %struct.vtx_data, ptr %101, i32 0, i32 1
  %103 = load ptr, ptr %102, align 8, !tbaa !40
  call void @free(ptr noundef %103) #11
  %104 = load ptr, ptr %5, align 8, !tbaa !8
  call void @free(ptr noundef %104) #11
  call void @llvm.lifetime.end.p0(i64 8, ptr %7) #11
  call void @llvm.lifetime.end.p0(i64 4, ptr %6) #11
  call void @llvm.lifetime.end.p0(i64 8, ptr %5) #11
  ret void
}