; Function Attrs: nounwind uwtable
define dso_local void @makeSierpinski(i32 noundef %0, ptr noundef readonly captures(none) %1) local_unnamed_addr #0 {
  %3 = add i32 %0, -1
  %4 = uitofp i32 %3 to double
  %5 = tail call double @pow(double noundef 3.000000e+00, double noundef %4) #15, !tbaa !30
  %6 = fadd double %5, 5.000000e-01
  %7 = fptoui double %6 to i32
  %8 = add i32 %7, -1
  %9 = lshr i32 %8, 1
  %10 = mul i32 %9, 3
  %11 = add i32 %10, 3
  %12 = add i32 %10, 4
  %13 = zext i32 %12 to i64
  %14 = icmp ne i32 %12, 0
  %15 = tail call noalias ptr @calloc(i64 noundef range(i64 0, 4294967296) %13, i64 noundef 16) #17
  %16 = icmp eq ptr %15, null
  %or.cond3.i = and i1 %16, %14
  br i1 %or.cond3.i, label %17, label %gv_calloc.exit

17:                                               ; preds = %2
  %18 = load ptr, ptr @stderr, align 8, !tbaa !8
  %19 = shl nuw nsw i64 %13, 4
  %20 = tail call i32 (ptr, ptr, ...) @fprintf(ptr noundef %18, ptr noundef nonnull @.str.5, i64 noundef %19) #16
  tail call fastcc void @graphviz_exit() #18
  unreachable

gv_calloc.exit:                                   ; preds = %2
  %21 = shl i32 %11, 2
  %22 = zext i32 %21 to i64
  %23 = icmp ne i32 %21, 0
  %24 = tail call noalias ptr @calloc(i64 noundef range(i64 0, 4294967296) %22, i64 noundef 4) #17
  %25 = icmp eq ptr %24, null
  %or.cond3.i37 = and i1 %23, %25
  br i1 %or.cond3.i37, label %26, label %gv_calloc.exit38.preheader

gv_calloc.exit38.preheader:                       ; preds = %gv_calloc.exit
  %.not39 = icmp eq i32 %11, 0
  br i1 %.not39, label %gv_calloc.exit38._crit_edge.thread, label %gv_calloc.exit38.preheader48

gv_calloc.exit38._crit_edge.thread:               ; preds = %gv_calloc.exit38.preheader
  tail call fastcc void @constructSierpinski(i32 noundef 1, i32 noundef 2, i32 noundef 3, i32 noundef %3, ptr noundef %15)
  br label %._crit_edge46

gv_calloc.exit38.preheader48:                     ; preds = %gv_calloc.exit38.preheader
  %umax = tail call i32 @llvm.umax.i32(i32 %12, i32 2)
  %wide.trip.count = zext i32 %umax to i64
  br label %gv_calloc.exit38

26:                                               ; preds = %gv_calloc.exit
  %27 = load ptr, ptr @stderr, align 8, !tbaa !8
  %28 = shl nuw nsw i64 %22, 2
  %29 = tail call i32 (ptr, ptr, ...) @fprintf(ptr noundef %27, ptr noundef nonnull @.str.5, i64 noundef %28) #16
  tail call fastcc void @graphviz_exit() #18
  unreachable

gv_calloc.exit38._crit_edge:                      ; preds = %gv_calloc.exit38
  tail call fastcc void @constructSierpinski(i32 noundef 1, i32 noundef 2, i32 noundef 3, i32 noundef %3, ptr noundef nonnull %15)
  br label %.preheader

gv_calloc.exit38:                                 ; preds = %gv_calloc.exit38.preheader48, %gv_calloc.exit38
  %indvars.iv = phi i64 [ 1, %gv_calloc.exit38.preheader48 ], [ %indvars.iv.next, %gv_calloc.exit38 ]
  %.03340 = phi ptr [ %24, %gv_calloc.exit38.preheader48 ], [ %32, %gv_calloc.exit38 ]
  %30 = getelementptr inbounds nuw %struct.vtx_data, ptr %15, i64 %indvars.iv
  %31 = getelementptr inbounds nuw i8, ptr %30, i64 8
  store ptr %.03340, ptr %31, align 8, !tbaa !35
  %32 = getelementptr inbounds nuw i8, ptr %.03340, i64 16
  store i32 0, ptr %30, align 8, !tbaa !38
  %indvars.iv.next = add nuw nsw i64 %indvars.iv, 1
  %exitcond = icmp eq i64 %indvars.iv.next, %wide.trip.count
  br i1 %exitcond, label %gv_calloc.exit38._crit_edge, label %gv_calloc.exit38, !llvm.loop !39

.preheader:                                       ; preds = %gv_calloc.exit38._crit_edge, %._crit_edge
  %.03145 = phi i32 [ %39, %._crit_edge ], [ 1, %gv_calloc.exit38._crit_edge ]
  %33 = zext i32 %.03145 to i64
  %34 = getelementptr inbounds nuw %struct.vtx_data, ptr %15, i64 %33
  %35 = load i32, ptr %34, align 8, !tbaa !38
  %.not47 = icmp eq i32 %35, 0
  br i1 %.not47, label %._crit_edge, label %.lr.ph43

.lr.ph43:                                         ; preds = %.preheader
  %36 = getelementptr inbounds nuw i8, ptr %34, i64 8
  br label %40

._crit_edge46:                                    ; preds = %._crit_edge, %gv_calloc.exit38._crit_edge.thread
  %37 = getelementptr inbounds nuw i8, ptr %15, i64 24
  %38 = load ptr, ptr %37, align 8, !tbaa !35
  tail call void @free(ptr noundef %38) #15
  tail call void @free(ptr noundef %15) #15
  ret void

._crit_edge:                                      ; preds = %47, %.preheader
  %39 = add i32 %.03145, 1
  %.not36 = icmp ugt i32 %39, %11
  br i1 %.not36, label %._crit_edge46, label %.preheader, !llvm.loop !40

40:                                               ; preds = %.lr.ph43, %47
  %41 = phi i32 [ %35, %.lr.ph43 ], [ %48, %47 ]
  %indvars.iv50 = phi i64 [ 0, %.lr.ph43 ], [ %indvars.iv.next51, %47 ]
  %42 = load ptr, ptr %36, align 8, !tbaa !35
  %43 = getelementptr inbounds nuw i32, ptr %42, i64 %indvars.iv50
  %44 = load i32, ptr %43, align 4, !tbaa !30
  %45 = icmp ult i32 %.03145, %44
  br i1 %45, label %46, label %47

46:                                               ; preds = %40
  tail call void %1(i32 noundef %.03145, i32 noundef %44) #15
  %.pre = load i32, ptr %34, align 8, !tbaa !38
  br label %47

47:                                               ; preds = %46, %40
  %48 = phi i32 [ %.pre, %46 ], [ %41, %40 ]
  %indvars.iv.next51 = add nuw nsw i64 %indvars.iv50, 1
  %49 = zext i32 %48 to i64
  %50 = icmp samesign ult i64 %indvars.iv.next51, %49
  br i1 %50, label %40, label %._crit_edge, !llvm.loop !41
}